target datalayout = "e-m:e-p270:32:32-p271:32:32-p272:64:64-i64:64-i128:128-f80:128-n8:16:32:64-S128"
target triple = "x86_64-pc-linux-gnu"

%struct.__va_list_tag = type { i32, i32, ptr, ptr }

@.str = private unnamed_addr constant [1 x i8] zeroinitializer, align 1
@stdout = external global ptr, align 8
@.str.17 = private unnamed_addr constant [5 x i8] c"%-*s\00", align 1
@INDENT_LEVEL = internal global i32 0, align 4
@GLOBAL_PRINT_COUNT = internal global i32 0, align 4
@.str.74 = private unnamed_addr constant [2 x i8] c" \00", align 1

; Function Attrs: nounwind uwtable
define internal void @first_line_test() #0 {
  %1 = load ptr, ptr @stdout, align 8, !tbaa !27
  %2 = call i32 @fputs(ptr noundef @.str.74, ptr noundef %1)
  ret void
}

; Function Attrs: nounwind uwtable
define internal void @log_testinfo_i(ptr noundef %0, ...) #0 {
  %2 = alloca ptr, align 8
  %3 = alloca [1 x %struct.__va_list_tag], align 16
  store ptr %0, ptr %2, align 8, !tbaa !15
  call void @llvm.lifetime.start.p0(i64 24, ptr %3) #12
  call void @first_line_test()
  %4 = load ptr, ptr @stdout, align 8, !tbaa !27
  %5 = load i32, ptr @INDENT_LEVEL, align 4, !tbaa !18
  %6 = call i32 (ptr, ptr, ...) @fprintf(ptr noundef %4, ptr noundef @.str.17, i32 noundef %5, ptr noundef @.str) #12
  %7 = getelementptr inbounds [1 x %struct.__va_list_tag], ptr %3, i64 0, i64 0
  call void @llvm.va_start.p0(ptr %7)
  %8 = load ptr, ptr @stdout, align 8, !tbaa !27
  %9 = load ptr, ptr %2, align 8, !tbaa !15
  %10 = getelementptr inbounds [1 x %struct.__va_list_tag], ptr %3, i64 0, i64 0
  %11 = call i32 @vfprintf(ptr noundef %8, ptr noundef %9, ptr noundef %10) #12
  %12 = load ptr, ptr @stdout, align 8, !tbaa !27
  %13 = call i32 @fflush(ptr noundef %12)
  %14 = getelementptr inbounds [1 x %struct.__va_list_tag], ptr %3, i64 0, i64 0
  call void @llvm.va_end.p0(ptr %14)
  %15 = load i32, ptr @GLOBAL_PRINT_COUNT, align 4, !tbaa !18
  %16 = add nsw i32 %15, 1
  store i32 %16, ptr @GLOBAL_PRINT_COUNT, align 4, !tbaa !18
  call void @llvm.lifetime.end.p0(i64 24, ptr %3) #12
  ret void
}