; Function Attrs: nofree nounwind uwtable
define internal void @log_testinfo_i(ptr noundef readonly captures(none) %0, ...) unnamed_addr #2 {
  %2 = alloca [1 x %struct.__va_list_tag], align 16
  call void @llvm.lifetime.start.p0(i64 24, ptr nonnull %2) #23
  %3 = load ptr, ptr @stdout, align 8, !tbaa !16
  %fputc.i = tail call i32 @fputc(i32 32, ptr %3)
  %4 = load ptr, ptr @stdout, align 8, !tbaa !16
  %5 = load i32, ptr @INDENT_LEVEL, align 4, !tbaa !18
  %6 = tail call i32 (ptr, ptr, ...) @fprintf(ptr noundef %4, ptr noundef nonnull @.str.17, i32 noundef %5, ptr noundef nonnull @.str) #23
  call void @llvm.va_start.p0(ptr nonnull %2)
  %7 = load ptr, ptr @stdout, align 8, !tbaa !16
  %8 = call i32 @vfprintf(ptr noundef %7, ptr noundef %0, ptr noundef nonnull %2) #23
  %9 = load ptr, ptr @stdout, align 8, !tbaa !16
  %10 = call i32 @fflush(ptr noundef %9)
  call void @llvm.va_end.p0(ptr nonnull %2)
  %11 = load i32, ptr @GLOBAL_PRINT_COUNT, align 4, !tbaa !18
  %12 = add nsw i32 %11, 1
  store i32 %12, ptr @GLOBAL_PRINT_COUNT, align 4, !tbaa !18
  call void @llvm.lifetime.end.p0(i64 24, ptr nonnull %2) #23
  ret void
}